target datalayout = "e-m:e-p270:32:32-p271:32:32-p272:64:64-i64:64-i128:128-f80:128-n8:16:32:64-S128"
target triple = "x86_64-unknown-linux-gnu"

%struct.dm_target = type { ptr, ptr, i64, i64, i32, i32, i32, i32, i32, i32, ptr, ptr, i16 }
%struct.queue_limits = type { i32, i64, i64, i32, i32, i32, i32, i32, i32, i32, i32, i32, i32, i32, i32, i32, i32, i32, i32, i32, i32, i32, i16, i16, i16, i8, i8, i8, i8, i32 }

@.str.20 = private unnamed_addr constant [111 x i8] c"\014device-mapper: table: %s: adding target device (start sect %llu len %llu) caused an alignment inconsistency\0A\00", align 1
@.str.41 = private unnamed_addr constant [78 x i8] c"\013device-mapper: table: %s: zoned model is not consistent across all devices\0A\00", align 1
@.str.42 = private unnamed_addr constant [85 x i8] c"\013device-mapper: table: %s: zone sectors is not consistent across all zoned devices\0A\00", align 1
@.str.43 = private unnamed_addr constant [111 x i8] c"\013device-mapper: table: %s: table line %u (start sect %llu len %llu) not aligned to h/w logical block size %u\0A\00", align 1

; Function Attrs: fn_ret_thunk_extern nounwind null_pointer_is_valid
define dso_local noundef i32 @dm_calculate_queue_limits(ptr nocapture noundef readonly %0, ptr noundef %1) local_unnamed_addr #0 align 16 {
  %3 = alloca %struct.queue_limits, align 8
  %4 = alloca i32, align 4
  %5 = alloca %struct.queue_limits, align 8
  call void @llvm.lifetime.start.p0(i64 120, ptr nonnull %5) #22
  call void @llvm.memset.p0.i64(ptr noundef nonnull align 8 dereferenceable(120) %5, i8 0, i64 120, i1 false), !annotation !9
  tail call void @blk_set_stacking_limits(ptr noundef %1) #22
  %6 = getelementptr inbounds i8, ptr %0, i64 208
  %7 = load i32, ptr %6, align 8
  %8 = icmp ne i32 %7, 0
  br i1 %8, label %9, label %73

9:                                                ; preds = %2
  %10 = getelementptr inbounds i8, ptr %0, i64 224
  %11 = getelementptr inbounds i8, ptr %5, i64 109
  %12 = getelementptr inbounds i8, ptr %5, i64 32
  br label %18

13:                                               ; preds = %69
  %14 = add nuw nsw i64 %19, 1
  %15 = load i32, ptr %6, align 8
  %16 = zext i32 %15 to i64
  %17 = icmp ult i64 %14, %16
  br i1 %17, label %18, label %73, !llvm.loop !45

18:                                               ; preds = %13, %9
  %19 = phi i64 [ 0, %9 ], [ %14, %13 ]
  %20 = phi i1 [ %8, %9 ], [ %17, %13 ]
  %21 = phi i8 [ 0, %9 ], [ %71, %13 ]
  %22 = phi i32 [ 0, %9 ], [ %70, %13 ]
  %23 = load ptr, ptr %10, align 8
  %24 = getelementptr %struct.dm_target, ptr %23, i64 %19
  call void @blk_set_stacking_limits(ptr noundef nonnull %5) #22
  %25 = getelementptr inbounds i8, ptr %24, i64 8
  %26 = load ptr, ptr %25, align 8
  %27 = getelementptr inbounds i8, ptr %26, i64 176
  %28 = load ptr, ptr %27, align 8
  %29 = icmp eq ptr %28, null
  br i1 %29, label %30, label %35

30:                                               ; preds = %18
  %31 = getelementptr inbounds i8, ptr %26, i64 184
  %32 = load ptr, ptr %31, align 8
  %33 = icmp eq ptr %32, null
  br i1 %33, label %56, label %34

34:                                               ; preds = %30
  call void %32(ptr noundef %24, ptr noundef nonnull %5) #22
  br label %56

35:                                               ; preds = %18
  %36 = call i32 %28(ptr noundef %24, ptr noundef nonnull @dm_set_device_limits, ptr noundef nonnull %5) #22
  %37 = and i8 %21, 1
  %38 = icmp ne i8 %37, 0
  %39 = load i8, ptr %11, align 1, !range !46
  %40 = icmp eq i8 %39, 0
  %41 = select i1 %38, i1 true, i1 %40
  %42 = load i32, ptr %12, align 8
  %43 = select i1 %41, i32 %22, i32 %42
  %44 = select i1 %41, i8 %21, i8 1
  %45 = load ptr, ptr %25, align 8
  %46 = getelementptr inbounds i8, ptr %45, i64 184
  %47 = load ptr, ptr %46, align 8
  %48 = icmp eq ptr %47, null
  br i1 %48, label %50, label %49

49:                                               ; preds = %35
  call void %47(ptr noundef %24, ptr noundef nonnull %5) #22
  br label %50

50:                                               ; preds = %49, %35
  %51 = load ptr, ptr %25, align 8
  %52 = getelementptr inbounds i8, ptr %51, i64 176
  %53 = load ptr, ptr %52, align 8
  %54 = call i32 %53(ptr noundef %24, ptr noundef nonnull @device_area_is_invalid, ptr noundef nonnull %5) #22
  %55 = icmp eq i32 %54, 0
  br i1 %55, label %56, label %69

56:                                               ; preds = %50, %34, %30
  %57 = phi i32 [ %43, %50 ], [ %22, %34 ], [ %22, %30 ]
  %58 = phi i8 [ %44, %50 ], [ %21, %34 ], [ %21, %30 ]
  %59 = call i32 @blk_stack_limits(ptr noundef %1, ptr noundef nonnull %5, i64 noundef 0) #22
  %60 = icmp slt i32 %59, 0
  br i1 %60, label %61, label %69

61:                                               ; preds = %56
  %62 = load ptr, ptr %0, align 8
  %63 = call ptr @dm_device_name(ptr noundef %62) #22
  %64 = getelementptr inbounds i8, ptr %24, i64 16
  %65 = load i64, ptr %64, align 8
  %66 = getelementptr inbounds i8, ptr %24, i64 24
  %67 = load i64, ptr %66, align 8
  %68 = call i32 (ptr, ...) @_printk(ptr noundef nonnull @.str.20, ptr noundef %63, i64 noundef %65, i64 noundef %67) #24
  br label %69

69:                                               ; preds = %61, %56, %50
  %70 = phi i32 [ %43, %50 ], [ %57, %61 ], [ %57, %56 ]
  %71 = phi i8 [ %44, %50 ], [ %58, %61 ], [ %58, %56 ]
  %72 = phi i1 [ false, %50 ], [ true, %61 ], [ true, %56 ]
  br i1 %72, label %13, label %73

73:                                               ; preds = %69, %13, %2
  %74 = phi i1 [ %8, %2 ], [ %20, %69 ], [ %17, %13 ]
  %75 = phi i32 [ 0, %2 ], [ %70, %13 ], [ %70, %69 ]
  %76 = phi i8 [ 0, %2 ], [ %71, %13 ], [ %71, %69 ]
  %77 = getelementptr inbounds i8, ptr %0, i64 208
  br i1 %74, label %212, label %78

78:                                               ; preds = %73
  %79 = getelementptr inbounds i8, ptr %1, i64 109
  %80 = load i8, ptr %79, align 1, !range !46, !noundef !47
  %81 = icmp eq i8 %80, 0
  br i1 %81, label %85, label %82

82:                                               ; preds = %78
  %83 = getelementptr inbounds i8, ptr %1, i64 32
  %84 = load i32, ptr %83, align 8
  br label %85

85:                                               ; preds = %82, %78
  %86 = phi i32 [ %84, %82 ], [ %75, %78 ]
  %87 = phi i8 [ 1, %82 ], [ %76, %78 ]
  %88 = and i8 %87, 1
  %89 = icmp eq i8 %88, 0
  call void @llvm.lifetime.start.p0(i64 4, ptr nonnull %4)
  store i32 %86, ptr %4, align 4
  br i1 %89, label %134, label %90

90:                                               ; preds = %85
  %91 = load i32, ptr %77, align 8
  %92 = icmp eq i32 %91, 0
  br i1 %92, label %105, label %93

93:                                               ; preds = %90
  %94 = getelementptr inbounds i8, ptr %0, i64 224
  %95 = load ptr, ptr %94, align 8
  %96 = getelementptr inbounds i8, ptr %95, i64 8
  %97 = load ptr, ptr %96, align 8
  %98 = load i64, ptr %97, align 8
  %99 = and i64 %98, 8
  %100 = icmp eq i64 %99, 0
  br i1 %100, label %206, label %101

101:                                              ; preds = %93
  %102 = getelementptr inbounds i8, ptr %97, i64 176
  %103 = load ptr, ptr %102, align 8
  %104 = call i32 %103(ptr noundef %95, ptr noundef nonnull @device_is_zoned_model, ptr noundef null) #22
  br label %206

105:                                              ; preds = %90
  %106 = load i32, ptr %4, align 4
  %107 = call i32 @llvm.ctpop.i32(i32 %106), !range !48
  %108 = icmp eq i32 %107, 1
  br i1 %108, label %109, label %211

109:                                              ; preds = %105
  %110 = load i32, ptr %77, align 8
  %111 = icmp ne i32 %110, 0
  br i1 %111, label %112, label %132

112:                                              ; preds = %109
  %113 = getelementptr inbounds i8, ptr %0, i64 224
  br label %114

114:                                              ; preds = %127, %112
  %115 = phi i64 [ 0, %112 ], [ %128, %127 ]
  %116 = phi i1 [ true, %112 ], [ %131, %127 ]
  %117 = load ptr, ptr %113, align 8
  %118 = getelementptr %struct.dm_target, ptr %117, i64 %115
  %119 = getelementptr inbounds i8, ptr %118, i64 8
  %120 = load ptr, ptr %119, align 8
  %121 = getelementptr inbounds i8, ptr %120, i64 176
  %122 = load ptr, ptr %121, align 8
  %123 = icmp eq ptr %122, null
  br i1 %123, label %127, label %124

124:                                              ; preds = %114
  %125 = call i32 %122(ptr noundef %118, ptr noundef nonnull @device_not_matches_zone_sectors, ptr noundef nonnull %4) #22
  %126 = icmp eq i32 %125, 0
  br i1 %126, label %127, label %132

127:                                              ; preds = %124, %114
  %128 = add nuw nsw i64 %115, 1
  %129 = load i32, ptr %77, align 8
  %130 = zext i32 %129 to i64
  %131 = icmp ult i64 %128, %130
  br i1 %131, label %114, label %132, !llvm.loop !49

132:                                              ; preds = %127, %124, %109
  %133 = phi i1 [ %111, %109 ], [ %131, %127 ], [ %116, %124 ]
  br i1 %133, label %206, label %134

134:                                              ; preds = %132, %85
  call void @llvm.lifetime.end.p0(i64 4, ptr nonnull %4)
  %135 = getelementptr inbounds i8, ptr %1, i64 52
  %136 = load i32, ptr %135, align 4
  %137 = lshr i32 %136, 9
  call void @llvm.lifetime.start.p0(i64 120, ptr nonnull %3) #22
  call void @llvm.memset.p0.i64(ptr noundef nonnull align 8 dereferenceable(120) %3, i8 0, i64 120, i1 false), !annotation !9
  %138 = load i32, ptr %77, align 8
  %139 = icmp eq i32 %138, 0
  br i1 %139, label %191, label %140

140:                                              ; preds = %134
  %141 = getelementptr inbounds i8, ptr %0, i64 224
  %142 = getelementptr inbounds i8, ptr %3, i64 52
  %143 = add nsw i32 %137, -1
  %144 = zext i32 %143 to i64
  br label %145

145:                                              ; preds = %171, %140
  %146 = phi i64 [ 0, %140 ], [ %180, %171 ]
  %147 = phi i32 [ 0, %140 ], [ %181, %171 ]
  %148 = phi i16 [ 0, %140 ], [ %179, %171 ]
  %149 = phi i64 [ 0, %140 ], [ %173, %171 ]
  %150 = load ptr, ptr %141, align 8
  %151 = getelementptr %struct.dm_target, ptr %150, i64 %146
  call void @blk_set_stacking_limits(ptr noundef nonnull %3) #22
  %152 = getelementptr inbounds i8, ptr %151, i64 8
  %153 = load ptr, ptr %152, align 8
  %154 = getelementptr inbounds i8, ptr %153, i64 176
  %155 = load ptr, ptr %154, align 8
  %156 = icmp eq ptr %155, null
  br i1 %156, label %159, label %157

157:                                              ; preds = %145
  %158 = call i32 %155(ptr noundef %151, ptr noundef nonnull @dm_set_device_limits, ptr noundef nonnull %3) #22
  br label %159

159:                                              ; preds = %157, %145
  %160 = zext i16 %148 to i64
  %161 = getelementptr inbounds i8, ptr %151, i64 24
  %162 = load i64, ptr %161, align 8
  %163 = icmp ugt i64 %162, %160
  br i1 %163, label %164, label %171

164:                                              ; preds = %159
  %165 = zext i16 %148 to i32
  %166 = load i32, ptr %142, align 4
  %167 = lshr i32 %166, 9
  %168 = add nuw nsw i32 %167, 65535
  %169 = and i32 %168, %165
  %170 = icmp eq i32 %169, 0
  br i1 %170, label %171, label %185

171:                                              ; preds = %164, %159
  %172 = add i64 %162, %149
  %173 = and i64 %172, %144
  %174 = trunc i64 %173 to i32
  %175 = and i32 %174, 65535
  %176 = icmp eq i32 %175, 0
  %177 = sub i32 %137, %174
  %178 = trunc i32 %177 to i16
  %179 = select i1 %176, i16 0, i16 %178
  %180 = add nuw nsw i64 %146, 1
  %181 = add nuw i32 %147, 1
  %182 = load i32, ptr %77, align 8
  %183 = zext i32 %182 to i64
  %184 = icmp ult i64 %180, %183
  br i1 %184, label %145, label %187, !llvm.loop !50

185:                                              ; preds = %164
  %186 = trunc i64 %146 to i32
  br label %187

187:                                              ; preds = %185, %171
  %188 = phi i16 [ %148, %185 ], [ %179, %171 ]
  %189 = phi i32 [ %186, %185 ], [ %181, %171 ]
  %190 = icmp eq i16 %188, 0
  br label %191

191:                                              ; preds = %187, %134
  %192 = phi i1 [ true, %134 ], [ %190, %187 ]
  %193 = phi i32 [ 0, %134 ], [ %189, %187 ]
  %194 = phi ptr [ null, %134 ], [ %151, %187 ]
  br i1 %192, label %204, label %195

195:                                              ; preds = %191
  %196 = load ptr, ptr %0, align 8
  %197 = call ptr @dm_device_name(ptr noundef %196) #22
  %198 = getelementptr inbounds i8, ptr %194, i64 16
  %199 = load i64, ptr %198, align 8
  %200 = getelementptr inbounds i8, ptr %194, i64 24
  %201 = load i64, ptr %200, align 8
  %202 = load i32, ptr %135, align 4
  %203 = call i32 (ptr, ...) @_printk(ptr noundef nonnull @.str.43, ptr noundef %197, i32 noundef %193, i64 noundef %199, i64 noundef %201, i32 noundef %202) #24
  br label %204

204:                                              ; preds = %195, %191
  %205 = phi i32 [ -22, %195 ], [ 0, %191 ]
  call void @llvm.lifetime.end.p0(i64 120, ptr nonnull %3) #22
  br label %212

206:                                              ; preds = %132, %101, %93
  %207 = phi ptr [ @.str.41, %93 ], [ @.str.41, %101 ], [ @.str.42, %132 ]
  %208 = load ptr, ptr %0, align 8
  %209 = call ptr @dm_device_name(ptr noundef %208) #22
  %210 = call i32 (ptr, ...) @_printk(ptr noundef nonnull %207, ptr noundef %209) #24
  br label %211

211:                                              ; preds = %206, %105
  call void @llvm.lifetime.end.p0(i64 4, ptr nonnull %4)
  br label %212

212:                                              ; preds = %211, %204, %73
  %213 = phi i32 [ %205, %204 ], [ -22, %73 ], [ -22, %211 ]
  call void @llvm.lifetime.end.p0(i64 120, ptr nonnull %5) #22
  ret i32 %213
}