; Function Attrs: fn_ret_thunk_extern nounwind null_pointer_is_valid
define dso_local noundef i32 @dm_calculate_queue_limits(ptr nocapture noundef readonly %0, ptr noundef %1) local_unnamed_addr #0 align 16 {
  %3 = alloca %struct.queue_limits, align 8
  %4 = alloca %struct.queue_limits, align 8
  call void @llvm.lifetime.start.p0(i64 120, ptr nonnull %4) #22
  tail call void @blk_set_stacking_limits(ptr noundef %1) #22
  %5 = getelementptr inbounds i8, ptr %0, i64 208
  %6 = load i32, ptr %5, align 8
  %.not = icmp eq i32 %6, 0
  br i1 %.not, label %.loopexit23.thread, label %7

7:                                                ; preds = %2
  call void @llvm.memset.p0.i64(ptr noundef nonnull align 8 dereferenceable(120) %4, i8 0, i64 120, i1 false), !annotation !12
  %8 = getelementptr inbounds i8, ptr %0, i64 224
  %9 = getelementptr inbounds i8, ptr %4, i64 109
  %10 = getelementptr inbounds i8, ptr %4, i64 32
  br label %16

11:                                               ; preds = %58, %53
  %12 = add nuw nsw i64 %17, 1
  %13 = load i32, ptr %5, align 8
  %14 = zext i32 %13 to i64
  %15 = icmp ult i64 %12, %14
  br i1 %15, label %16, label %.loopexit23, !llvm.loop !46

16:                                               ; preds = %11, %7
  %17 = phi i64 [ 0, %7 ], [ %12, %11 ]
  %18 = phi i8 [ 0, %7 ], [ %55, %11 ]
  %19 = phi i32 [ 0, %7 ], [ %54, %11 ]
  %20 = load ptr, ptr %8, align 8
  %21 = getelementptr %struct.dm_target, ptr %20, i64 %17
  call void @blk_set_stacking_limits(ptr noundef nonnull %4) #22
  %22 = getelementptr inbounds i8, ptr %21, i64 8
  %23 = load ptr, ptr %22, align 8
  %24 = getelementptr inbounds i8, ptr %23, i64 176
  %25 = load ptr, ptr %24, align 8
  %26 = icmp eq ptr %25, null
  br i1 %26, label %27, label %32

27:                                               ; preds = %16
  %28 = getelementptr inbounds i8, ptr %23, i64 184
  %29 = load ptr, ptr %28, align 8
  %30 = icmp eq ptr %29, null
  br i1 %30, label %53, label %31

31:                                               ; preds = %27
  call void %29(ptr noundef %21, ptr noundef nonnull %4) #22
  br label %53

32:                                               ; preds = %16
  %33 = call i32 %25(ptr noundef %21, ptr noundef nonnull @dm_set_device_limits, ptr noundef nonnull %4) #22
  %34 = and i8 %18, 1
  %35 = icmp ne i8 %34, 0
  %36 = load i8, ptr %9, align 1, !range !47
  %37 = icmp eq i8 %36, 0
  %38 = select i1 %35, i1 true, i1 %37
  %39 = load i32, ptr %10, align 8
  %40 = select i1 %38, i32 %19, i32 %39
  %41 = select i1 %38, i8 %18, i8 1
  %42 = load ptr, ptr %22, align 8
  %43 = getelementptr inbounds i8, ptr %42, i64 184
  %44 = load ptr, ptr %43, align 8
  %45 = icmp eq ptr %44, null
  br i1 %45, label %47, label %46

46:                                               ; preds = %32
  call void %44(ptr noundef %21, ptr noundef nonnull %4) #22
  %.pre = load ptr, ptr %22, align 8
  br label %47

47:                                               ; preds = %46, %32
  %48 = phi ptr [ %.pre, %46 ], [ %42, %32 ]
  %49 = getelementptr inbounds i8, ptr %48, i64 176
  %50 = load ptr, ptr %49, align 8
  %51 = call i32 %50(ptr noundef %21, ptr noundef nonnull @device_area_is_invalid, ptr noundef nonnull %4) #22
  %52 = icmp eq i32 %51, 0
  br i1 %52, label %53, label %.loopexit22

53:                                               ; preds = %47, %31, %27
  %54 = phi i32 [ %40, %47 ], [ %19, %31 ], [ %19, %27 ]
  %55 = phi i8 [ %41, %47 ], [ %18, %31 ], [ %18, %27 ]
  %56 = call i32 @blk_stack_limits(ptr noundef %1, ptr noundef nonnull %4, i64 noundef 0) #22
  %57 = icmp slt i32 %56, 0
  br i1 %57, label %58, label %11

58:                                               ; preds = %53
  %59 = load ptr, ptr %0, align 8
  %60 = call ptr @dm_device_name(ptr noundef %59) #22
  %61 = getelementptr inbounds i8, ptr %21, i64 16
  %62 = load i64, ptr %61, align 8
  %63 = getelementptr inbounds i8, ptr %21, i64 24
  %64 = load i64, ptr %63, align 8
  %65 = call i32 (ptr, ...) @_printk(ptr noundef nonnull @.str.20, ptr noundef %60, i64 noundef %62, i64 noundef %64) #24
  br label %11

.loopexit23:                                      ; preds = %11
  %66 = icmp eq i32 %13, 0
  %67 = getelementptr inbounds i8, ptr %1, i64 109
  %68 = load i8, ptr %67, align 1, !range !47, !noundef !48
  %69 = icmp eq i8 %68, 0
  br i1 %69, label %77, label %.thread17

.loopexit23.thread:                               ; preds = %2
  %70 = getelementptr inbounds i8, ptr %1, i64 109
  %71 = load i8, ptr %70, align 1, !range !47, !noundef !48
  %72 = icmp eq i8 %71, 0
  br i1 %72, label %.thread54, label %.thread17.thread

.thread17.thread:                                 ; preds = %.loopexit23.thread
  %73 = getelementptr inbounds i8, ptr %1, i64 32
  %74 = load i32, ptr %73, align 8
  br label %93

.thread54:                                        ; preds = %.loopexit23.thread
  call void @llvm.lifetime.start.p0(i64 120, ptr nonnull %3) #22
  br label %.thread21

.thread17:                                        ; preds = %.loopexit23
  %75 = getelementptr inbounds i8, ptr %1, i64 32
  %76 = load i32, ptr %75, align 8
  br i1 %66, label %93, label %81

77:                                               ; preds = %.loopexit23
  %78 = and i8 %55, 1
  %79 = icmp eq i8 %78, 0
  br i1 %79, label %97, label %80

80:                                               ; preds = %77
  br i1 %66, label %93, label %81

81:                                               ; preds = %.thread17, %80
  %82 = getelementptr inbounds i8, ptr %0, i64 224
  %83 = load ptr, ptr %82, align 8
  %84 = getelementptr inbounds i8, ptr %83, i64 8
  %85 = load ptr, ptr %84, align 8
  %86 = load i64, ptr %85, align 8
  %87 = and i64 %86, 8
  %88 = icmp eq i64 %87, 0
  br i1 %88, label %161, label %89

89:                                               ; preds = %81
  %90 = getelementptr inbounds i8, ptr %85, i64 176
  %91 = load ptr, ptr %90, align 8
  %92 = call i32 %91(ptr noundef %83, ptr noundef nonnull @device_is_zoned_model, ptr noundef null) #22
  br label %161

93:                                               ; preds = %.thread17.thread, %.thread17, %80
  %94 = phi i32 [ %76, %.thread17 ], [ %54, %80 ], [ %74, %.thread17.thread ]
  %95 = call i32 @llvm.ctpop.i32(i32 %94), !range !49
  %96 = icmp eq i32 %95, 1
  br i1 %96, label %.thread18, label %.loopexit22

.thread18:                                        ; preds = %93
  call void @llvm.lifetime.start.p0(i64 120, ptr nonnull %3) #22
  br label %.thread21

97:                                               ; preds = %77
  %98 = getelementptr inbounds i8, ptr %1, i64 52
  %99 = load i32, ptr %98, align 4
  %100 = lshr i32 %99, 9
  call void @llvm.lifetime.start.p0(i64 120, ptr nonnull %3) #22
  call void @llvm.memset.p0.i64(ptr noundef nonnull align 8 dereferenceable(120) %3, i8 0, i64 120, i1 false), !annotation !12
  br i1 %66, label %.thread21, label %101

101:                                              ; preds = %97
  %102 = getelementptr inbounds i8, ptr %0, i64 224
  %103 = getelementptr inbounds i8, ptr %3, i64 52
  %104 = add nsw i32 %100, -1
  %105 = zext i32 %104 to i64
  br label %106

106:                                              ; preds = %132, %101
  %107 = phi i64 [ 0, %101 ], [ %141, %132 ]
  %108 = phi i32 [ 0, %101 ], [ %142, %132 ]
  %109 = phi i16 [ 0, %101 ], [ %140, %132 ]
  %110 = phi i64 [ 0, %101 ], [ %134, %132 ]
  %111 = load ptr, ptr %102, align 8
  %112 = getelementptr %struct.dm_target, ptr %111, i64 %107
  call void @blk_set_stacking_limits(ptr noundef nonnull %3) #22
  %113 = getelementptr inbounds i8, ptr %112, i64 8
  %114 = load ptr, ptr %113, align 8
  %115 = getelementptr inbounds i8, ptr %114, i64 176
  %116 = load ptr, ptr %115, align 8
  %117 = icmp eq ptr %116, null
  br i1 %117, label %120, label %118

118:                                              ; preds = %106
  %119 = call i32 %116(ptr noundef %112, ptr noundef nonnull @dm_set_device_limits, ptr noundef nonnull %3) #22
  br label %120

120:                                              ; preds = %118, %106
  %121 = zext i16 %109 to i64
  %122 = getelementptr inbounds i8, ptr %112, i64 24
  %123 = load i64, ptr %122, align 8
  %124 = icmp ugt i64 %123, %121
  br i1 %124, label %125, label %132

125:                                              ; preds = %120
  %126 = zext i16 %109 to i32
  %127 = load i32, ptr %103, align 4
  %128 = lshr i32 %127, 9
  %129 = add nuw nsw i32 %128, 65535
  %130 = and i32 %129, %126
  %131 = icmp eq i32 %130, 0
  br i1 %131, label %132, label %146

132:                                              ; preds = %125, %120
  %133 = add i64 %123, %110
  %134 = and i64 %133, %105
  %135 = trunc i64 %134 to i32
  %136 = and i32 %135, 65535
  %137 = icmp eq i32 %136, 0
  %138 = sub i32 %100, %135
  %139 = trunc i32 %138 to i16
  %140 = select i1 %137, i16 0, i16 %139
  %141 = add nuw nsw i64 %107, 1
  %142 = add nuw i32 %108, 1
  %143 = load i32, ptr %5, align 8
  %144 = zext i32 %143 to i64
  %145 = icmp ult i64 %141, %144
  br i1 %145, label %106, label %.loopexit, !llvm.loop !50

146:                                              ; preds = %125
  %147 = trunc i64 %107 to i32
  br label %.loopexit

.loopexit:                                        ; preds = %132, %146
  %148 = phi i16 [ %109, %146 ], [ %140, %132 ]
  %149 = phi i32 [ %147, %146 ], [ %142, %132 ]
  %150 = icmp eq i16 %148, 0
  br i1 %150, label %.thread21, label %151

151:                                              ; preds = %.loopexit
  %152 = getelementptr inbounds i8, ptr %112, i64 24
  %153 = load ptr, ptr %0, align 8
  %154 = call ptr @dm_device_name(ptr noundef %153) #22
  %155 = getelementptr inbounds i8, ptr %112, i64 16
  %156 = load i64, ptr %155, align 8
  %157 = load i64, ptr %152, align 8
  %158 = load i32, ptr %98, align 4
  %159 = call i32 (ptr, ...) @_printk(ptr noundef nonnull @.str.43, ptr noundef %154, i32 noundef %149, i64 noundef %156, i64 noundef %157, i32 noundef %158) #24
  br label %.thread21

.thread21:                                        ; preds = %.thread54, %.thread18, %97, %151, %.loopexit
  %160 = phi i32 [ -22, %151 ], [ 0, %.loopexit ], [ 0, %97 ], [ 0, %.thread18 ], [ 0, %.thread54 ]
  call void @llvm.lifetime.end.p0(i64 120, ptr nonnull %3) #22
  br label %.loopexit22

161:                                              ; preds = %89, %81
  %162 = load ptr, ptr %0, align 8
  %163 = call ptr @dm_device_name(ptr noundef %162) #22
  %164 = call i32 (ptr, ...) @_printk(ptr noundef nonnull @.str.41, ptr noundef %163) #24
  br label %.loopexit22

.loopexit22:                                      ; preds = %47, %93, %161, %.thread21
  %165 = phi i32 [ %160, %.thread21 ], [ -22, %161 ], [ -22, %93 ], [ -22, %47 ]
  call void @llvm.lifetime.end.p0(i64 120, ptr nonnull %4) #22
  ret i32 %165
}